target datalayout = "e-m:e-p270:32:32-p271:32:32-p272:64:64-i64:64-i128:128-f80:128-n8:16:32:64-S128"
target triple = "x86_64-pc-linux-gnu"

%"class.icu_77::MaybeStackArray" = type <{ ptr, i32, i8, [40 x i8], [3 x i8] }>
%"class.icu_77::CharString" = type { %"class.icu_77::MaybeStackArray", i32, [4 x i8] }

; Function Attrs: mustprogress nounwind uwtable
define weak_odr noundef ptr @_ZNK6icu_7715MaybeStackArrayIcLi40EE8getAliasEv(ptr noundef nonnull align 8 dereferenceable(53) %0) #0 comdat align 2 {
  %2 = alloca ptr, align 8
  store ptr %0, ptr %2, align 8, !tbaa !3
  %3 = load ptr, ptr %2, align 8
  %4 = getelementptr inbounds nuw %"class.icu_77::MaybeStackArray", ptr %3, i32 0, i32 0
  %5 = load ptr, ptr %4, align 8, !tbaa !8
  ret ptr %5
}

; Function Attrs: mustprogress nounwind uwtable
define weak_odr noundef i32 @_ZNK6icu_7715MaybeStackArrayIcLi40EE11getCapacityEv(ptr noundef nonnull align 8 dereferenceable(53) %0) #0 comdat align 2 {
  %2 = alloca ptr, align 8
  store ptr %0, ptr %2, align 8, !tbaa !3
  %3 = load ptr, ptr %2, align 8
  %4 = getelementptr inbounds nuw %"class.icu_77::MaybeStackArray", ptr %3, i32 0, i32 1
  %5 = load i32, ptr %4, align 8, !tbaa !12
  ret i32 %5
}

; Function Attrs: inlinehint mustprogress nounwind uwtable
define internal noundef signext i8 @_ZL9U_FAILURE10UErrorCode(i32 noundef %0) #2 {
  %2 = alloca i32, align 4
  store i32 %0, ptr %2, align 4, !tbaa !15
  %3 = load i32, ptr %2, align 4, !tbaa !15
  %4 = icmp sgt i32 %3, 0
  %5 = zext i1 %4 to i8
  ret i8 %5
}

; Function Attrs: mustprogress uwtable
define noundef ptr @_ZN6icu_7710CharString15getAppendBufferEiiRiR10UErrorCode(ptr noundef nonnull align 8 dereferenceable(60) %0, i32 noundef %1, i32 noundef %2, ptr noundef nonnull align 4 dereferenceable(4) %3, ptr noundef nonnull align 4 dereferenceable(4) %4) #1 align 2 {
  %6 = alloca ptr, align 8
  %7 = alloca ptr, align 8
  %8 = alloca i32, align 4
  %9 = alloca i32, align 4
  %10 = alloca ptr, align 8
  %11 = alloca ptr, align 8
  %12 = alloca i32, align 4
  %13 = alloca i32, align 4
  store ptr %0, ptr %7, align 8, !tbaa !23
  store i32 %1, ptr %8, align 4, !tbaa !14
  store i32 %2, ptr %9, align 4, !tbaa !14
  store ptr %3, ptr %10, align 8, !tbaa !20
  store ptr %4, ptr %11, align 8, !tbaa !22
  %14 = load ptr, ptr %7, align 8
  %15 = load ptr, ptr %11, align 8, !tbaa !22
  %16 = load i32, ptr %15, align 4, !tbaa !15
  %17 = call noundef signext i8 @_ZL9U_FAILURE10UErrorCode(i32 noundef %16)
  %18 = icmp ne i8 %17, 0
  br i1 %18, label %19, label %21

19:                                               ; preds = %5
  %20 = load ptr, ptr %10, align 8, !tbaa !20
  store i32 0, ptr %20, align 4, !tbaa !14
  store ptr null, ptr %6, align 8
  br label %71

21:                                               ; preds = %5
  call void @llvm.lifetime.start.p0(i64 4, ptr %12) #11
  %22 = getelementptr inbounds nuw %"class.icu_77::CharString", ptr %14, i32 0, i32 0
  %23 = call noundef i32 @_ZNK6icu_7715MaybeStackArrayIcLi40EE11getCapacityEv(ptr noundef nonnull align 8 dereferenceable(53) %22)
  %24 = getelementptr inbounds nuw %"class.icu_77::CharString", ptr %14, i32 0, i32 1
  %25 = load i32, ptr %24, align 8, !tbaa !25
  %26 = sub nsw i32 %23, %25
  %27 = sub nsw i32 %26, 1
  store i32 %27, ptr %12, align 4, !tbaa !14
  %28 = load i32, ptr %12, align 4, !tbaa !14
  %29 = load i32, ptr %8, align 4, !tbaa !14
  %30 = icmp sge i32 %28, %29
  br i1 %30, label %31, label %40

31:                                               ; preds = %21
  %32 = load i32, ptr %12, align 4, !tbaa !14
  %33 = load ptr, ptr %10, align 8, !tbaa !20
  store i32 %32, ptr %33, align 4, !tbaa !14
  %34 = getelementptr inbounds nuw %"class.icu_77::CharString", ptr %14, i32 0, i32 0
  %35 = call noundef ptr @_ZNK6icu_7715MaybeStackArrayIcLi40EE8getAliasEv(ptr noundef nonnull align 8 dereferenceable(53) %34)
  %36 = getelementptr inbounds nuw %"class.icu_77::CharString", ptr %14, i32 0, i32 1
  %37 = load i32, ptr %36, align 8, !tbaa !25
  %38 = sext i32 %37 to i64
  %39 = getelementptr inbounds i8, ptr %35, i64 %38
  store ptr %39, ptr %6, align 8
  store i32 1, ptr %13, align 4
  br label %70

40:                                               ; preds = %21
  %41 = getelementptr inbounds nuw %"class.icu_77::CharString", ptr %14, i32 0, i32 1
  %42 = load i32, ptr %41, align 8, !tbaa !25
  %43 = load i32, ptr %8, align 4, !tbaa !14
  %44 = add nsw i32 %42, %43
  %45 = add nsw i32 %44, 1
  %46 = getelementptr inbounds nuw %"class.icu_77::CharString", ptr %14, i32 0, i32 1
  %47 = load i32, ptr %46, align 8, !tbaa !25
  %48 = load i32, ptr %9, align 4, !tbaa !14
  %49 = add nsw i32 %47, %48
  %50 = add nsw i32 %49, 1
  %51 = load ptr, ptr %11, align 8, !tbaa !22
  %52 = call noundef signext i8 @_ZN6icu_7710CharString14ensureCapacityEiiR10UErrorCode(ptr noundef nonnull align 8 dereferenceable(60) %14, i32 noundef %45, i32 noundef %50, ptr noundef nonnull align 4 dereferenceable(4) %51)
  %53 = icmp ne i8 %52, 0
  br i1 %53, label %54, label %68

54:                                               ; preds = %40
  %55 = getelementptr inbounds nuw %"class.icu_77::CharString", ptr %14, i32 0, i32 0
  %56 = call noundef i32 @_ZNK6icu_7715MaybeStackArrayIcLi40EE11getCapacityEv(ptr noundef nonnull align 8 dereferenceable(53) %55)
  %57 = getelementptr inbounds nuw %"class.icu_77::CharString", ptr %14, i32 0, i32 1
  %58 = load i32, ptr %57, align 8, !tbaa !25
  %59 = sub nsw i32 %56, %58
  %60 = sub nsw i32 %59, 1
  %61 = load ptr, ptr %10, align 8, !tbaa !20
  store i32 %60, ptr %61, align 4, !tbaa !14
  %62 = getelementptr inbounds nuw %"class.icu_77::CharString", ptr %14, i32 0, i32 0
  %63 = call noundef ptr @_ZNK6icu_7715MaybeStackArrayIcLi40EE8getAliasEv(ptr noundef nonnull align 8 dereferenceable(53) %62)
  %64 = getelementptr inbounds nuw %"class.icu_77::CharString", ptr %14, i32 0, i32 1
  %65 = load i32, ptr %64, align 8, !tbaa !25
  %66 = sext i32 %65 to i64
  %67 = getelementptr inbounds i8, ptr %63, i64 %66
  store ptr %67, ptr %6, align 8
  store i32 1, ptr %13, align 4
  br label %70

68:                                               ; preds = %40
  %69 = load ptr, ptr %10, align 8, !tbaa !20
  store i32 0, ptr %69, align 4, !tbaa !14
  store ptr null, ptr %6, align 8
  store i32 1, ptr %13, align 4
  br label %70

70:                                               ; preds = %68, %54, %31
  call void @llvm.lifetime.end.p0(i64 4, ptr %12) #11
  br label %71

71:                                               ; preds = %70, %19
  %72 = load ptr, ptr %6, align 8
  ret ptr %72
}