; Function Attrs: mustprogress uwtable
define noundef ptr @_ZN6icu_7710CharString15getAppendBufferEiiRiR10UErrorCode(ptr noundef nonnull align 8 captures(none) dereferenceable(60) %0, i32 noundef %1, i32 noundef %2, ptr noundef nonnull writeonly align 4 captures(none) dereferenceable(4) initializes((0, 4)) %3, ptr noundef nonnull align 4 captures(none) dereferenceable(4) %4) local_unnamed_addr #1 align 2 {
  %6 = load i32, ptr %4, align 4, !tbaa !13
  %7 = icmp slt i32 %6, 1
  br i1 %7, label %9, label %8

8:                                                ; preds = %5
  store i32 0, ptr %3, align 4, !tbaa !12
  br label %37

9:                                                ; preds = %5
  %10 = getelementptr inbounds nuw i8, ptr %0, i64 8
  %11 = load i32, ptr %10, align 8, !tbaa !10
  %12 = getelementptr inbounds nuw i8, ptr %0, i64 56
  %13 = load i32, ptr %12, align 8, !tbaa !15
  %14 = xor i32 %13, -1
  %15 = add i32 %11, %14
  %.not14 = icmp slt i32 %15, %1
  br i1 %.not14, label %21, label %16

16:                                               ; preds = %9
  store i32 %15, ptr %3, align 4, !tbaa !12
  %17 = load ptr, ptr %0, align 8, !tbaa !3
  %18 = load i32, ptr %12, align 8, !tbaa !15
  %19 = sext i32 %18 to i64
  %20 = getelementptr inbounds i8, ptr %17, i64 %19
  br label %37

21:                                               ; preds = %9
  %22 = add i32 %1, 1
  %23 = add i32 %22, %13
  %24 = add i32 %2, 1
  %25 = add i32 %24, %13
  %26 = tail call noundef signext i8 @_ZN6icu_7710CharString14ensureCapacityEiiR10UErrorCode(ptr noundef nonnull align 8 dereferenceable(60) %0, i32 noundef %23, i32 noundef %25, ptr noundef nonnull align 4 dereferenceable(4) %4)
  %.not15 = icmp eq i8 %26, 0
  br i1 %.not15, label %36, label %27

27:                                               ; preds = %21
  %28 = load i32, ptr %10, align 8, !tbaa !10
  %29 = load i32, ptr %12, align 8, !tbaa !15
  %30 = xor i32 %29, -1
  %31 = add i32 %28, %30
  store i32 %31, ptr %3, align 4, !tbaa !12
  %32 = load ptr, ptr %0, align 8, !tbaa !3
  %33 = load i32, ptr %12, align 8, !tbaa !15
  %34 = sext i32 %33 to i64
  %35 = getelementptr inbounds i8, ptr %32, i64 %34
  br label %37

36:                                               ; preds = %21
  store i32 0, ptr %3, align 4, !tbaa !12
  br label %37

37:                                               ; preds = %16, %27, %36, %8
  %.0 = phi ptr [ null, %8 ], [ %20, %16 ], [ %35, %27 ], [ null, %36 ]
  ret ptr %.0
}